target datalayout = "e-m:e-p270:32:32-p271:32:32-p272:64:64-i64:64-i128:128-f80:128-n8:16:32:64-S128"
target triple = "x86_64-pc-linux-gnu"

%struct.fdt_header = type { i32, i32, i32, i32, i32, i32, i32, i32, i32, i32 }

; Function Attrs: inlinehint nounwind uwtable
define internal i32 @fdt32_ld(ptr noundef %0) #3 {
  %2 = alloca ptr, align 8
  %3 = alloca ptr, align 8
  store ptr %0, ptr %2, align 8, !tbaa !9
  call void @llvm.lifetime.start.p0(i64 8, ptr %3) #6
  %4 = load ptr, ptr %2, align 8, !tbaa !9
  store ptr %4, ptr %3, align 8, !tbaa !13
  %5 = load ptr, ptr %3, align 8, !tbaa !13
  %6 = getelementptr inbounds i8, ptr %5, i64 0
  %7 = load i8, ptr %6, align 1, !tbaa !15
  %8 = zext i8 %7 to i32
  %9 = shl i32 %8, 24
  %10 = load ptr, ptr %3, align 8, !tbaa !13
  %11 = getelementptr inbounds i8, ptr %10, i64 1
  %12 = load i8, ptr %11, align 1, !tbaa !15
  %13 = zext i8 %12 to i32
  %14 = shl i32 %13, 16
  %15 = or i32 %9, %14
  %16 = load ptr, ptr %3, align 8, !tbaa !13
  %17 = getelementptr inbounds i8, ptr %16, i64 2
  %18 = load i8, ptr %17, align 1, !tbaa !15
  %19 = zext i8 %18 to i32
  %20 = shl i32 %19, 8
  %21 = or i32 %15, %20
  %22 = load ptr, ptr %3, align 8, !tbaa !13
  %23 = getelementptr inbounds i8, ptr %22, i64 3
  %24 = load i8, ptr %23, align 1, !tbaa !15
  %25 = zext i8 %24 to i32
  %26 = or i32 %21, %25
  call void @llvm.lifetime.end.p0(i64 8, ptr %3) #6
  ret i32 %26
}

; Function Attrs: nounwind uwtable
define ptr @fdt_get_property_namelen(ptr noundef %0, i32 noundef %1, ptr noundef %2, i32 noundef %3, ptr noundef %4) #0 {
  %6 = alloca ptr, align 8
  %7 = alloca ptr, align 8
  %8 = alloca i32, align 4
  %9 = alloca ptr, align 8
  %10 = alloca i32, align 4
  %11 = alloca ptr, align 8
  store ptr %0, ptr %7, align 8, !tbaa !3
  store i32 %1, ptr %8, align 4, !tbaa !7
  store ptr %2, ptr %9, align 8, !tbaa !13
  store i32 %3, ptr %10, align 4, !tbaa !7
  store ptr %4, ptr %11, align 8, !tbaa !9
  %12 = load ptr, ptr %7, align 8, !tbaa !3
  %13 = getelementptr inbounds nuw %struct.fdt_header, ptr %12, i32 0, i32 5
  %14 = call i32 @fdt32_ld(ptr noundef %13)
  %15 = icmp ult i32 %14, 16
  br i1 %15, label %16, label %22

16:                                               ; preds = %5
  %17 = load ptr, ptr %11, align 8, !tbaa !9
  %18 = icmp ne ptr %17, null
  br i1 %18, label %19, label %21

19:                                               ; preds = %16
  %20 = load ptr, ptr %11, align 8, !tbaa !9
  store i32 -10, ptr %20, align 4, !tbaa !7
  br label %21

21:                                               ; preds = %19, %16
  store ptr null, ptr %6, align 8
  br label %29

22:                                               ; preds = %5
  %23 = load ptr, ptr %7, align 8, !tbaa !3
  %24 = load i32, ptr %8, align 4, !tbaa !7
  %25 = load ptr, ptr %9, align 8, !tbaa !13
  %26 = load i32, ptr %10, align 4, !tbaa !7
  %27 = load ptr, ptr %11, align 8, !tbaa !9
  %28 = call ptr @fdt_get_property_namelen_(ptr noundef %23, i32 noundef %24, ptr noundef %25, i32 noundef %26, ptr noundef %27, ptr noundef null)
  store ptr %28, ptr %6, align 8
  br label %29

29:                                               ; preds = %22, %21
  %30 = load ptr, ptr %6, align 8
  ret ptr %30
}

; Function Attrs: nounwind uwtable
define ptr @fdt_get_property(ptr noundef %0, i32 noundef %1, ptr noundef %2, ptr noundef %3) #0 {
  %5 = alloca ptr, align 8
  %6 = alloca i32, align 4
  %7 = alloca ptr, align 8
  %8 = alloca ptr, align 8
  store ptr %0, ptr %5, align 8, !tbaa !3
  store i32 %1, ptr %6, align 4, !tbaa !7
  store ptr %2, ptr %7, align 8, !tbaa !13
  store ptr %3, ptr %8, align 8, !tbaa !9
  %9 = load ptr, ptr %5, align 8, !tbaa !3
  %10 = load i32, ptr %6, align 4, !tbaa !7
  %11 = load ptr, ptr %7, align 8, !tbaa !13
  %12 = load ptr, ptr %7, align 8, !tbaa !13
  %13 = call i64 @strlen(ptr noundef %12) #7
  %14 = trunc i64 %13 to i32
  %15 = load ptr, ptr %8, align 8, !tbaa !9
  %16 = call ptr @fdt_get_property_namelen(ptr noundef %9, i32 noundef %10, ptr noundef %11, i32 noundef %14, ptr noundef %15)
  ret ptr %16
}