; Function Attrs: nounwind uwtable
define ptr @fdt_get_property(ptr noundef %0, i32 noundef %1, ptr noundef readonly captures(none) %2, ptr noundef captures(address_is_null) %3) local_unnamed_addr #0 {
  %5 = getelementptr inbounds nuw i8, ptr %0, i64 20
  %6 = load i8, ptr %5, align 1, !tbaa !3
  %7 = zext i8 %6 to i32
  %8 = shl nuw i32 %7, 24
  %9 = getelementptr inbounds nuw i8, ptr %0, i64 21
  %10 = load i8, ptr %9, align 1, !tbaa !3
  %11 = zext i8 %10 to i32
  %12 = shl nuw nsw i32 %11, 16
  %13 = or disjoint i32 %12, %8
  %14 = getelementptr inbounds nuw i8, ptr %0, i64 22
  %15 = load i8, ptr %14, align 1, !tbaa !3
  %16 = zext i8 %15 to i32
  %17 = shl nuw nsw i32 %16, 8
  %18 = or disjoint i32 %13, %17
  %19 = getelementptr inbounds nuw i8, ptr %0, i64 23
  %20 = load i8, ptr %19, align 1, !tbaa !3
  %21 = zext i8 %20 to i32
  %22 = or disjoint i32 %18, %21
  %23 = icmp ult i32 %22, 16
  br i1 %23, label %24, label %26

24:                                               ; preds = %4
  %.not.i = icmp eq ptr %3, null
  br i1 %.not.i, label %fdt_get_property_namelen.exit, label %25

25:                                               ; preds = %24
  store i32 -10, ptr %3, align 4, !tbaa !6
  br label %fdt_get_property_namelen.exit

26:                                               ; preds = %4
  %27 = tail call i64 @strlen(ptr noundef nonnull dereferenceable(1) %2) #10
  %28 = trunc i64 %27 to i32
  %29 = tail call fastcc ptr @fdt_get_property_namelen_(ptr noundef nonnull %0, i32 noundef %1, ptr noundef nonnull readonly %2, i32 noundef %28, ptr noundef %3, ptr noundef null)
  br label %fdt_get_property_namelen.exit

fdt_get_property_namelen.exit:                    ; preds = %24, %25, %26
  %.0.i = phi ptr [ %29, %26 ], [ null, %25 ], [ null, %24 ]
  ret ptr %.0.i
}